target datalayout = "e-m:e-p270:32:32-p271:32:32-p272:64:64-i64:64-i128:128-f80:128-n8:16:32:64-S128"
target triple = "x86_64-pc-linux-gnu"

%struct.client_io_t = type { i32, i32, i8, i32, i32, i32, ptr, i8, %union.pthread_cond_t, %union.pthread_mutex_t, i32, ptr, ptr, ptr, %union.pthread_mutex_t, ptr, i32, ptr, ptr, ptr, ptr, ptr, ptr, i32, i32, ptr }
%union.pthread_cond_t = type { %struct.__pthread_cond_s }
%struct.__pthread_cond_s = type { %union.__atomic_wide_counter, %union.__atomic_wide_counter, [2 x i32], [2 x i32], i32, i32, [2 x i32] }
%union.__atomic_wide_counter = type { i64 }
%union.pthread_mutex_t = type { %struct.__pthread_mutex_s }
%struct.__pthread_mutex_s = type { i32, i32, i32, i32, i32, i16, i16, %struct.__pthread_internal_list }
%struct.__pthread_internal_list = type { ptr, ptr }

@.str.14 = private unnamed_addr constant [32 x i8] c"%s: pthread_mutex_destroy(): %m\00", align 1
@__func__.client_io_handler_destroy = private unnamed_addr constant [26 x i8] c"client_io_handler_destroy\00", align 1

; Function Attrs: nounwind uwtable
define dso_local void @client_io_handler_destroy(ptr noundef %0) #0 {
  %2 = alloca ptr, align 8
  %3 = alloca i32, align 4
  store ptr %0, ptr %2, align 8
  %4 = load ptr, ptr %2, align 8
  %5 = icmp eq ptr %4, null
  br i1 %5, label %6, label %7

6:                                                ; preds = %1
  br label %68

7:                                                ; preds = %1
  br label %8

8:                                                ; preds = %7
  call void @llvm.lifetime.start.p0(i64 4, ptr %3) #9
  %9 = load ptr, ptr %2, align 8
  %10 = getelementptr inbounds nuw %struct.client_io_t, ptr %9, i32 0, i32 14
  %11 = call i32 @pthread_mutex_destroy(ptr noundef %10) #9
  store i32 %11, ptr %3, align 4
  %12 = load i32, ptr %3, align 4
  %13 = icmp ne i32 %12, 0
  br i1 %13, label %14, label %17

14:                                               ; preds = %8
  %15 = load i32, ptr %3, align 4
  %16 = call ptr @__errno_location() #10
  store i32 %15, ptr %16, align 4
  call void (ptr, ...) @fatal_abort(ptr noundef @.str.14, ptr noundef @__func__.client_io_handler_destroy) #11
  unreachable

17:                                               ; preds = %8
  call void @llvm.lifetime.end.p0(i64 4, ptr %3) #9
  br label %18

18:                                               ; preds = %17
  br label %19

19:                                               ; preds = %18
  %20 = load ptr, ptr %2, align 8
  %21 = getelementptr inbounds nuw %struct.client_io_t, ptr %20, i32 0, i32 15
  %22 = load ptr, ptr %21, align 8
  %23 = icmp ne ptr %22, null
  br i1 %23, label %24, label %27

24:                                               ; preds = %19
  %25 = load ptr, ptr %2, align 8
  %26 = getelementptr inbounds nuw %struct.client_io_t, ptr %25, i32 0, i32 15
  call void @slurm_bit_free(ptr noundef %26)
  br label %27

27:                                               ; preds = %24, %19
  %28 = load ptr, ptr %2, align 8
  %29 = getelementptr inbounds nuw %struct.client_io_t, ptr %28, i32 0, i32 15
  store ptr null, ptr %29, align 8
  br label %30

30:                                               ; preds = %27
  %31 = load ptr, ptr %2, align 8
  %32 = getelementptr inbounds nuw %struct.client_io_t, ptr %31, i32 0, i32 17
  call void @slurm_xfree(ptr noundef %32)
  %33 = load ptr, ptr %2, align 8
  %34 = getelementptr inbounds nuw %struct.client_io_t, ptr %33, i32 0, i32 12
  call void @slurm_xfree(ptr noundef %34)
  %35 = load ptr, ptr %2, align 8
  %36 = getelementptr inbounds nuw %struct.client_io_t, ptr %35, i32 0, i32 11
  call void @slurm_xfree(ptr noundef %36)
  %37 = load ptr, ptr %2, align 8
  %38 = getelementptr inbounds nuw %struct.client_io_t, ptr %37, i32 0, i32 13
  %39 = load ptr, ptr %38, align 8
  call void @eio_handle_destroy(ptr noundef %39)
  %40 = load ptr, ptr %2, align 8
  %41 = getelementptr inbounds nuw %struct.client_io_t, ptr %40, i32 0, i32 6
  call void @slurm_xfree(ptr noundef %41)
  br label %42

42:                                               ; preds = %30
  %43 = load ptr, ptr %2, align 8
  %44 = getelementptr inbounds nuw %struct.client_io_t, ptr %43, i32 0, i32 21
  %45 = load ptr, ptr %44, align 8
  %46 = icmp ne ptr %45, null
  br i1 %46, label %47, label %51

47:                                               ; preds = %42
  %48 = load ptr, ptr %2, align 8
  %49 = getelementptr inbounds nuw %struct.client_io_t, ptr %48, i32 0, i32 21
  %50 = load ptr, ptr %49, align 8
  call void @list_destroy(ptr noundef %50)
  br label %51

51:                                               ; preds = %47, %42
  %52 = load ptr, ptr %2, align 8
  %53 = getelementptr inbounds nuw %struct.client_io_t, ptr %52, i32 0, i32 21
  store ptr null, ptr %53, align 8
  br label %54

54:                                               ; preds = %51
  br label %55

55:                                               ; preds = %54
  %56 = load ptr, ptr %2, align 8
  %57 = getelementptr inbounds nuw %struct.client_io_t, ptr %56, i32 0, i32 22
  %58 = load ptr, ptr %57, align 8
  %59 = icmp ne ptr %58, null
  br i1 %59, label %60, label %64

60:                                               ; preds = %55
  %61 = load ptr, ptr %2, align 8
  %62 = getelementptr inbounds nuw %struct.client_io_t, ptr %61, i32 0, i32 22
  %63 = load ptr, ptr %62, align 8
  call void @list_destroy(ptr noundef %63)
  br label %64

64:                                               ; preds = %60, %55
  %65 = load ptr, ptr %2, align 8
  %66 = getelementptr inbounds nuw %struct.client_io_t, ptr %65, i32 0, i32 22
  store ptr null, ptr %66, align 8
  br label %67

67:                                               ; preds = %64
  call void @slurm_xfree(ptr noundef %2)
  br label %68

68:                                               ; preds = %67, %6
  ret void
}