; Function Attrs: nounwind uwtable
define dso_local void @client_io_handler_destroy(ptr noundef %0) local_unnamed_addr #0 {
  %2 = alloca ptr, align 8
  store ptr %0, ptr %2, align 8
  %3 = icmp eq ptr %0, null
  br i1 %3, label %28, label %4

4:                                                ; preds = %1
  %5 = getelementptr inbounds nuw i8, ptr %0, i64 160
  %6 = tail call i32 @pthread_mutex_destroy(ptr noundef nonnull %5) #10
  %.not = icmp eq i32 %6, 0
  br i1 %.not, label %9, label %7

7:                                                ; preds = %4
  %8 = tail call ptr @__errno_location() #11
  store i32 %6, ptr %8, align 4
  tail call void (ptr, ...) @fatal_abort(ptr noundef nonnull @.str.14, ptr noundef nonnull @__func__.client_io_handler_destroy) #12
  unreachable

9:                                                ; preds = %4
  %10 = getelementptr inbounds nuw i8, ptr %0, i64 200
  %11 = load ptr, ptr %10, align 8
  %.not5 = icmp eq ptr %11, null
  br i1 %.not5, label %13, label %12

12:                                               ; preds = %9
  tail call void @slurm_bit_free(ptr noundef nonnull %10) #10
  br label %13

13:                                               ; preds = %12, %9
  store ptr null, ptr %10, align 8
  %14 = getelementptr inbounds nuw i8, ptr %0, i64 216
  tail call void @slurm_xfree(ptr noundef nonnull %14) #10
  %15 = getelementptr inbounds nuw i8, ptr %0, i64 144
  tail call void @slurm_xfree(ptr noundef nonnull %15) #10
  %16 = getelementptr inbounds nuw i8, ptr %0, i64 136
  tail call void @slurm_xfree(ptr noundef nonnull %16) #10
  %17 = getelementptr inbounds nuw i8, ptr %0, i64 152
  %18 = load ptr, ptr %17, align 8
  tail call void @eio_handle_destroy(ptr noundef %18) #10
  %19 = getelementptr inbounds nuw i8, ptr %0, i64 24
  tail call void @slurm_xfree(ptr noundef nonnull %19) #10
  %20 = getelementptr inbounds nuw i8, ptr %0, i64 248
  %21 = load ptr, ptr %20, align 8
  %.not6 = icmp eq ptr %21, null
  br i1 %.not6, label %23, label %22

22:                                               ; preds = %13
  tail call void @list_destroy(ptr noundef nonnull %21) #10
  br label %23

23:                                               ; preds = %22, %13
  store ptr null, ptr %20, align 8
  %24 = getelementptr inbounds nuw i8, ptr %0, i64 256
  %25 = load ptr, ptr %24, align 8
  %.not7 = icmp eq ptr %25, null
  br i1 %.not7, label %27, label %26

26:                                               ; preds = %23
  tail call void @list_destroy(ptr noundef nonnull %25) #10
  br label %27

27:                                               ; preds = %26, %23
  store ptr null, ptr %24, align 8
  call void @slurm_xfree(ptr noundef nonnull %2) #10
  br label %28

28:                                               ; preds = %1, %27
  ret void
}